target datalayout = "e-m:e-p270:32:32-p271:32:32-p272:64:64-i64:64-i128:128-f80:128-n8:16:32:64-S128"
target triple = "x86_64-pc-linux-gnu"

%class.btVector3 = type { [4 x float] }

; Function Attrs: inlinehint mustprogress nounwind uwtable
define linkonce_odr dso_local noundef ptr @_ZNK9btVector3cvPKfEv(ptr noundef nonnull align 4 dereferenceable(16) %0) #4 comdat align 2 {
  %2 = alloca ptr, align 8
  store ptr %0, ptr %2, align 8, !tbaa !52
  %3 = load ptr, ptr %2, align 8
  %4 = getelementptr inbounds nuw %class.btVector3, ptr %3, i32 0, i32 0
  %5 = getelementptr inbounds [4 x float], ptr %4, i64 0, i64 0
  ret ptr %5
}

; Function Attrs: inlinehint mustprogress nounwind uwtable
define linkonce_odr dso_local noundef float @_Z6btFabsf(float noundef %0) #4 comdat {
  %2 = alloca float, align 4
  store float %0, ptr %2, align 4, !tbaa !14
  %3 = load float, ptr %2, align 4, !tbaa !14
  %4 = call float @llvm.fabs.f32(float %3)
  ret float %4
}

; Function Attrs: mustprogress uwtable
define linkonce_odr dso_local noundef nonnull align 4 dereferenceable(4) ptr @_ZNK24btInverseDynamicsBullet34vec3clEi(ptr noundef nonnull align 4 dereferenceable(16) %0, i32 noundef %1) #2 comdat align 2 {
  %3 = alloca ptr, align 8
  %4 = alloca i32, align 4
  store ptr %0, ptr %3, align 8, !tbaa !12
  store i32 %1, ptr %4, align 4, !tbaa !9
  %5 = load ptr, ptr %3, align 8
  %6 = call noundef ptr @_ZNK9btVector3cvPKfEv(ptr noundef nonnull align 4 dereferenceable(16) %5)
  %7 = load i32, ptr %4, align 4, !tbaa !9
  %8 = sext i32 %7 to i64
  %9 = getelementptr inbounds float, ptr %6, i64 %8
  ret ptr %9
}

; Function Attrs: mustprogress uwtable
define dso_local noundef float @_ZN24btInverseDynamicsBullet36maxAbsERKNS_4vec3E(ptr noundef nonnull align 4 dereferenceable(16) %0) #2 {
  %2 = alloca ptr, align 8
  %3 = alloca float, align 4
  %4 = alloca i32, align 4
  %5 = alloca float, align 4
  store ptr %0, ptr %2, align 8, !tbaa !12
  call void @llvm.lifetime.start.p0(i64 4, ptr %3) #10
  store float 0.000000e+00, ptr %3, align 4, !tbaa !14
  call void @llvm.lifetime.start.p0(i64 4, ptr %4) #10
  store i32 0, ptr %4, align 4, !tbaa !9
  br label %6

6:                                                ; preds = %22, %1
  %7 = load i32, ptr %4, align 4, !tbaa !9
  %8 = icmp slt i32 %7, 3
  br i1 %8, label %10, label %9

9:                                                ; preds = %6
  call void @llvm.lifetime.end.p0(i64 4, ptr %4) #10
  br label %25

10:                                               ; preds = %6
  call void @llvm.lifetime.start.p0(i64 4, ptr %5) #10
  %11 = load ptr, ptr %2, align 8, !tbaa !12
  %12 = load i32, ptr %4, align 4, !tbaa !9
  %13 = call noundef nonnull align 4 dereferenceable(4) ptr @_ZNK24btInverseDynamicsBullet34vec3clEi(ptr noundef nonnull align 4 dereferenceable(16) %11, i32 noundef %12)
  %14 = load float, ptr %13, align 4, !tbaa !14
  %15 = call noundef float @_Z6btFabsf(float noundef %14)
  store float %15, ptr %5, align 4, !tbaa !14
  %16 = load float, ptr %5, align 4, !tbaa !14
  %17 = load float, ptr %3, align 4, !tbaa !14
  %18 = fcmp ogt float %16, %17
  br i1 %18, label %19, label %21

19:                                               ; preds = %10
  %20 = load float, ptr %5, align 4, !tbaa !14
  store float %20, ptr %3, align 4, !tbaa !14
  br label %21

21:                                               ; preds = %19, %10
  call void @llvm.lifetime.end.p0(i64 4, ptr %5) #10
  br label %22

22:                                               ; preds = %21
  %23 = load i32, ptr %4, align 4, !tbaa !9
  %24 = add nsw i32 %23, 1
  store i32 %24, ptr %4, align 4, !tbaa !9
  br label %6, !llvm.loop !25

25:                                               ; preds = %9
  %26 = load float, ptr %3, align 4, !tbaa !14
  call void @llvm.lifetime.end.p0(i64 4, ptr %3) #10
  ret float %26
}