; Function Attrs: mustprogress nofree norecurse nosync nounwind willreturn memory(argmem: read) uwtable
define dso_local noundef float @_ZN24btInverseDynamicsBullet36maxAbsERKNS_4vec3E(ptr noundef nonnull readonly align 4 captures(none) dereferenceable(16) %0) local_unnamed_addr #4 {
  br label %3

2:                                                ; preds = %3
  ret float %.1

3:                                                ; preds = %1, %3
  %indvars.iv = phi i64 [ 0, %1 ], [ %indvars.iv.next, %3 ]
  %.010 = phi float [ 0.000000e+00, %1 ], [ %.1, %3 ]
  %4 = getelementptr inbounds nuw float, ptr %0, i64 %indvars.iv
  %5 = load float, ptr %4, align 4, !tbaa !4
  %6 = tail call noundef float @llvm.fabs.f32(float %5)
  %7 = fcmp ogt float %6, %.010
  %.1 = select i1 %7, float %6, float %.010
  %indvars.iv.next = add nuw nsw i64 %indvars.iv, 1
  %exitcond.not = icmp eq i64 %indvars.iv.next, 3
  br i1 %exitcond.not, label %2, label %3, !llvm.loop !18
}